target datalayout = "e-m:e-p270:32:32-p271:32:32-p272:64:64-i64:64-i128:128-f80:128-n8:16:32:64-S128"
target triple = "x86_64-pc-linux-gnu"

; Function Attrs: nounwind uwtable
define internal i32 @os_exit(ptr noundef %0) #0 {
  %2 = alloca ptr, align 8
  %3 = alloca i32, align 4
  store ptr %0, ptr %2, align 8, !tbaa !4
  call void @llvm.lifetime.start.p0(i64 4, ptr %3) #9
  %4 = load ptr, ptr %2, align 8, !tbaa !4
  %5 = call i32 @lua_type(ptr noundef %4, i32 noundef 1)
  %6 = icmp eq i32 %5, 1
  br i1 %6, label %7, label %12

7:                                                ; preds = %1
  %8 = load ptr, ptr %2, align 8, !tbaa !4
  %9 = call i32 @lua_toboolean(ptr noundef %8, i32 noundef 1)
  %10 = icmp ne i32 %9, 0
  %11 = select i1 %10, i32 0, i32 1
  store i32 %11, ptr %3, align 4, !tbaa !20
  br label %16

12:                                               ; preds = %1
  %13 = load ptr, ptr %2, align 8, !tbaa !4
  %14 = call i64 @luaL_optinteger(ptr noundef %13, i32 noundef 1, i64 noundef 0)
  %15 = trunc i64 %14 to i32
  store i32 %15, ptr %3, align 4, !tbaa !20
  br label %16

16:                                               ; preds = %12, %7
  %17 = load ptr, ptr %2, align 8, !tbaa !4
  %18 = call i32 @lua_toboolean(ptr noundef %17, i32 noundef 2)
  %19 = icmp ne i32 %18, 0
  br i1 %19, label %20, label %22

20:                                               ; preds = %16
  %21 = load ptr, ptr %2, align 8, !tbaa !4
  call void @lua_close(ptr noundef %21)
  br label %22

22:                                               ; preds = %20, %16
  %23 = load ptr, ptr %2, align 8, !tbaa !4
  %24 = icmp ne ptr %23, null
  br i1 %24, label %25, label %27

25:                                               ; preds = %22
  %26 = load i32, ptr %3, align 4, !tbaa !20
  call void @exit(i32 noundef %26) #12
  unreachable

27:                                               ; preds = %22
  call void @llvm.lifetime.end.p0(i64 4, ptr %3) #9
  ret i32 0
}