; Function Attrs: nounwind uwtable
define internal noundef i32 @os_exit(ptr noundef %0) #0 {
  %2 = tail call i32 @lua_type(ptr noundef %0, i32 noundef 1) #12
  %3 = icmp eq i32 %2, 1
  br i1 %3, label %4, label %7

4:                                                ; preds = %1
  %5 = tail call i32 @lua_toboolean(ptr noundef %0, i32 noundef 1) #12
  %.not = icmp eq i32 %5, 0
  %6 = zext i1 %.not to i32
  br label %10

7:                                                ; preds = %1
  %8 = tail call i64 @luaL_optinteger(ptr noundef %0, i32 noundef 1, i64 noundef 0) #12
  %9 = trunc i64 %8 to i32
  br label %10

10:                                               ; preds = %7, %4
  %.0 = phi i32 [ %6, %4 ], [ %9, %7 ]
  %11 = tail call i32 @lua_toboolean(ptr noundef %0, i32 noundef 2) #12
  %.not6 = icmp eq i32 %11, 0
  br i1 %.not6, label %13, label %12

12:                                               ; preds = %10
  tail call void @lua_close(ptr noundef %0) #12
  br label %13

13:                                               ; preds = %12, %10
  %.not7 = icmp eq ptr %0, null
  br i1 %.not7, label %15, label %14

14:                                               ; preds = %13
  tail call void @exit(i32 noundef %.0) #14
  unreachable

15:                                               ; preds = %13
  ret i32 0
}